target datalayout = "e-m:e-p270:32:32-p271:32:32-p272:64:64-i64:64-i128:128-f80:128-n8:16:32:64-S128"
target triple = "x86_64-pc-linux-gnu"

%"class.cv::(anonymous namespace)::ufixedpoint32" = type { i32 }

; Function Attrs: inlinehint mustprogress nounwind uwtable
define linkonce_odr noundef nonnull align 8 dereferenceable(8) ptr @_ZSt3minImERKT_S2_S2_(ptr noundef nonnull align 8 dereferenceable(8) %0, ptr noundef nonnull align 8 dereferenceable(8) %1) #9 comdat {
  %3 = alloca ptr, align 8
  %4 = alloca ptr, align 8
  %5 = alloca ptr, align 8
  store ptr %0, ptr %4, align 8, !tbaa !136
  store ptr %1, ptr %5, align 8, !tbaa !136
  %6 = load ptr, ptr %5, align 8, !tbaa !136
  %7 = load i64, ptr %6, align 8, !tbaa !34
  %8 = load ptr, ptr %4, align 8, !tbaa !136
  %9 = load i64, ptr %8, align 8, !tbaa !34
  %10 = icmp ult i64 %7, %9
  br i1 %10, label %11, label %13

11:                                               ; preds = %2
  %12 = load ptr, ptr %5, align 8, !tbaa !136
  store ptr %12, ptr %3, align 8
  br label %15

13:                                               ; preds = %2
  %14 = load ptr, ptr %4, align 8, !tbaa !136
  store ptr %14, ptr %3, align 8
  br label %15

15:                                               ; preds = %13, %11
  %16 = load ptr, ptr %3, align 8
  ret ptr %16
}

; Function Attrs: mustprogress nounwind uwtable
define internal void @_ZN2cv12_GLOBAL__N_113ufixedpoint32C2Ej(ptr noundef nonnull align 4 dereferenceable(4) %0, i32 noundef %1) unnamed_addr #7 align 2 {
  %3 = alloca ptr, align 8
  %4 = alloca i32, align 4
  store ptr %0, ptr %3, align 8, !tbaa !343
  store i32 %1, ptr %4, align 4, !tbaa !10
  %5 = load ptr, ptr %3, align 8
  %6 = getelementptr inbounds nuw %"class.cv::(anonymous namespace)::ufixedpoint32", ptr %5, i32 0, i32 0
  %7 = load i32, ptr %4, align 4, !tbaa !10
  store i32 %7, ptr %6, align 4, !tbaa !344
  ret void
}

; Function Attrs: inlinehint mustprogress nounwind uwtable
define internal noundef i32 @_ZN2cvL13saturate_castIjEET_m(i64 noundef %0) #9 {
  %2 = alloca i64, align 8
  %3 = alloca i64, align 8
  store i64 %0, ptr %2, align 8, !tbaa !34
  call void @llvm.lifetime.start.p0(i64 8, ptr %3) #3
  store i64 4294967295, ptr %3, align 8, !tbaa !34
  %4 = call noundef nonnull align 8 dereferenceable(8) ptr @_ZSt3minImERKT_S2_S2_(ptr noundef nonnull align 8 dereferenceable(8) %2, ptr noundef nonnull align 8 dereferenceable(8) %3)
  %5 = load i64, ptr %4, align 8, !tbaa !34
  %6 = trunc i64 %5 to i32
  call void @llvm.lifetime.end.p0(i64 8, ptr %3) #3
  ret i32 %6
}

; Function Attrs: alwaysinline mustprogress nounwind uwtable
define internal noundef nonnull align 4 dereferenceable(4) ptr @_ZN2cv12_GLOBAL__N_113ufixedpoint32aSERKS1_(ptr noundef nonnull align 4 dereferenceable(4) %0, ptr noundef nonnull align 4 dereferenceable(4) %1) #17 align 2 {
  %3 = alloca ptr, align 8
  %4 = alloca ptr, align 8
  store ptr %0, ptr %3, align 8, !tbaa !343
  store ptr %1, ptr %4, align 8, !tbaa !343
  %5 = load ptr, ptr %3, align 8
  %6 = load ptr, ptr %4, align 8, !tbaa !343
  %7 = getelementptr inbounds nuw %"class.cv::(anonymous namespace)::ufixedpoint32", ptr %6, i32 0, i32 0
  %8 = load i32, ptr %7, align 4, !tbaa !344
  %9 = getelementptr inbounds nuw %"class.cv::(anonymous namespace)::ufixedpoint32", ptr %5, i32 0, i32 0
  store i32 %8, ptr %9, align 4, !tbaa !344
  ret ptr %5
}

; Function Attrs: alwaysinline mustprogress uwtable
define internal void @_ZNK2cv12_GLOBAL__N_113ufixedpoint32mlERKt(ptr dead_on_unwind noalias writable sret(%"class.cv::(anonymous namespace)::ufixedpoint32") align 4 %0, ptr noundef nonnull align 4 dereferenceable(4) %1, ptr noundef nonnull align 2 dereferenceable(2) %2) #19 align 2 {
  %4 = alloca ptr, align 8
  %5 = alloca ptr, align 8
  %6 = alloca ptr, align 8
  store ptr %0, ptr %4, align 8
  store ptr %1, ptr %5, align 8, !tbaa !343
  store ptr %2, ptr %6, align 8, !tbaa !8
  %7 = load ptr, ptr %5, align 8
  %8 = getelementptr inbounds nuw %"class.cv::(anonymous namespace)::ufixedpoint32", ptr %7, i32 0, i32 0
  %9 = load i32, ptr %8, align 4, !tbaa !344
  %10 = zext i32 %9 to i64
  %11 = load ptr, ptr %6, align 8, !tbaa !8
  %12 = load i16, ptr %11, align 2, !tbaa !236
  %13 = zext i16 %12 to i64
  %14 = mul i64 %10, %13
  %15 = call noundef i32 @_ZN2cvL13saturate_castIjEET_m(i64 noundef %14)
  call void @_ZN2cv12_GLOBAL__N_113ufixedpoint32C2Ej(ptr noundef nonnull align 4 dereferenceable(4) %0, i32 noundef %15)
  ret void
}

; Function Attrs: mustprogress uwtable
define internal void @_ZN2cv12cpu_baseline12_GLOBAL__N_113hlineSmooth1NItNS_12_GLOBAL__N_113ufixedpoint32EEEvPKT_iPKT0_iPS8_ii(ptr noundef %0, i32 noundef %1, ptr noundef %2, i32 noundef %3, ptr noundef %4, i32 noundef %5, i32 noundef %6) #4 {
  %8 = alloca ptr, align 8
  %9 = alloca i32, align 4
  %10 = alloca ptr, align 8
  %11 = alloca i32, align 4
  %12 = alloca ptr, align 8
  %13 = alloca i32, align 4
  %14 = alloca i32, align 4
  %15 = alloca i32, align 4
  %16 = alloca %"class.cv::(anonymous namespace)::ufixedpoint32", align 4
  store ptr %0, ptr %8, align 8, !tbaa !8
  store i32 %1, ptr %9, align 4, !tbaa !10
  store ptr %2, ptr %10, align 8, !tbaa !343
  store i32 %3, ptr %11, align 4, !tbaa !10
  store ptr %4, ptr %12, align 8, !tbaa !343
  store i32 %5, ptr %13, align 4, !tbaa !10
  store i32 %6, ptr %14, align 4, !tbaa !10
  call void @llvm.lifetime.start.p0(i64 4, ptr %15) #3
  store i32 0, ptr %15, align 4, !tbaa !10
  br label %17

17:                                               ; preds = %29, %7
  %18 = load i32, ptr %15, align 4, !tbaa !10
  %19 = load i32, ptr %13, align 4, !tbaa !10
  %20 = load i32, ptr %9, align 4, !tbaa !10
  %21 = mul nsw i32 %19, %20
  %22 = icmp slt i32 %18, %21
  br i1 %22, label %24, label %23

23:                                               ; preds = %17
  call void @llvm.lifetime.end.p0(i64 4, ptr %15) #3
  br label %36

24:                                               ; preds = %17
  call void @llvm.lifetime.start.p0(i64 4, ptr %16) #3
  %25 = load ptr, ptr %10, align 8, !tbaa !343
  %26 = load ptr, ptr %8, align 8, !tbaa !8
  call void @_ZNK2cv12_GLOBAL__N_113ufixedpoint32mlERKt(ptr dead_on_unwind writable sret(%"class.cv::(anonymous namespace)::ufixedpoint32") align 4 %16, ptr noundef nonnull align 4 dereferenceable(4) %25, ptr noundef nonnull align 2 dereferenceable(2) %26)
  %27 = load ptr, ptr %12, align 8, !tbaa !343
  %28 = call noundef nonnull align 4 dereferenceable(4) ptr @_ZN2cv12_GLOBAL__N_113ufixedpoint32aSERKS1_(ptr noundef nonnull align 4 dereferenceable(4) %27, ptr noundef nonnull align 4 dereferenceable(4) %16)
  call void @llvm.lifetime.end.p0(i64 4, ptr %16) #3
  br label %29

29:                                               ; preds = %24
  %30 = load i32, ptr %15, align 4, !tbaa !10
  %31 = add nsw i32 %30, 1
  store i32 %31, ptr %15, align 4, !tbaa !10
  %32 = load ptr, ptr %8, align 8, !tbaa !8
  %33 = getelementptr inbounds nuw i16, ptr %32, i32 1
  store ptr %33, ptr %8, align 8, !tbaa !8
  %34 = load ptr, ptr %12, align 8, !tbaa !343
  %35 = getelementptr inbounds nuw %"class.cv::(anonymous namespace)::ufixedpoint32", ptr %34, i32 1
  store ptr %35, ptr %12, align 8, !tbaa !343
  br label %17, !llvm.loop !376

36:                                               ; preds = %23
  ret void
}