; Function Attrs: mustprogress nofree norecurse nosync nounwind memory(argmem: readwrite) uwtable
define internal void @_ZN2cv12cpu_baseline12_GLOBAL__N_113hlineSmooth1NItNS_12_GLOBAL__N_113ufixedpoint32EEEvPKT_iPKT0_iPS8_ii(ptr noundef readonly captures(none) %0, i32 noundef %1, ptr noundef readonly captures(none) %2, i32 %3, ptr noundef writeonly captures(none) %4, i32 noundef %5, i32 %6) #16 {
  %8 = mul nsw i32 %5, %1
  %9 = icmp sgt i32 %8, 0
  br i1 %9, label %.lr.ph, label %._crit_edge

._crit_edge:                                      ; preds = %.lr.ph, %7
  ret void

.lr.ph:                                           ; preds = %7, %.lr.ph
  %.012 = phi i32 [ %16, %.lr.ph ], [ 0, %7 ]
  %.0811 = phi ptr [ %17, %.lr.ph ], [ %0, %7 ]
  %.0910 = phi ptr [ %18, %.lr.ph ], [ %4, %7 ]
  %10 = load i32, ptr %2, align 4, !tbaa !73, !noalias !1126
  %11 = zext i32 %10 to i64
  %12 = load i16, ptr %.0811, align 2, !tbaa !400, !noalias !1126
  %13 = zext i16 %12 to i64
  %14 = mul nuw nsw i64 %13, %11
  %.sroa.speculated.i = tail call i64 @llvm.umin.i64(i64 range(i64 0, 281470681677826) %14, i64 4294967295)
  %15 = trunc nuw i64 %.sroa.speculated.i to i32
  store i32 %15, ptr %.0910, align 4, !tbaa !73
  %16 = add nuw nsw i32 %.012, 1
  %17 = getelementptr inbounds nuw i8, ptr %.0811, i64 2
  %18 = getelementptr inbounds nuw i8, ptr %.0910, i64 4
  %exitcond.not = icmp eq i32 %16, %8
  br i1 %exitcond.not, label %._crit_edge, label %.lr.ph, !llvm.loop !1129
}